target datalayout = "e-m:e-p270:32:32-p271:32:32-p272:64:64-i64:64-i128:128-f80:128-n8:16:32:64-S128"
target triple = "x86_64-pc-linux-gnu"

%struct.file_extension_info = type { ptr, i8, ptr }
%struct._GSList = type { ptr, ptr }

@file_type_extensions = internal global ptr null, align 8
@.str = private unnamed_addr constant [2 x i8] c";\00", align 1
@.str.100 = private unnamed_addr constant [6 x i8] c"%s.%s\00", align 1

; Function Attrs: null_pointer_is_valid sspstrong uwtable
define internal ptr @add_extensions(ptr noundef %0, ptr noundef %1, ptr noundef %2) #0 {
  %4 = alloca ptr, align 8
  %5 = alloca ptr, align 8
  %6 = alloca ptr, align 8
  %7 = alloca ptr, align 8
  store ptr %0, ptr %4, align 8
  store ptr %1, ptr %5, align 8
  store ptr %2, ptr %6, align 8
  %8 = load ptr, ptr %4, align 8
  %9 = load ptr, ptr %5, align 8
  %10 = call noalias ptr @g_strdup(ptr noundef %9)
  %11 = call ptr @g_slist_prepend(ptr noundef %8, ptr noundef %10)
  store ptr %11, ptr %4, align 8
  call void @llvm.lifetime.start.p0(i64 8, ptr %7) #12
  %12 = load ptr, ptr %6, align 8
  store ptr %12, ptr %7, align 8
  br label %13

13:                                               ; preds = %33, %3
  %14 = load ptr, ptr %7, align 8
  %15 = icmp ne ptr %14, null
  br i1 %15, label %17, label %16

16:                                               ; preds = %13
  call void @llvm.lifetime.end.p0(i64 8, ptr %7) #12
  br label %35

17:                                               ; preds = %13
  %18 = load ptr, ptr %4, align 8
  %19 = load ptr, ptr %5, align 8
  %20 = load ptr, ptr %7, align 8
  %21 = getelementptr inbounds nuw %struct._GSList, ptr %20, i32 0, i32 0
  %22 = load ptr, ptr %21, align 8
  %23 = call noalias ptr (ptr, ptr, ...) @wmem_strdup_printf(ptr noundef null, ptr noundef @.str.100, ptr noundef %19, ptr noundef %22)
  %24 = call ptr @g_slist_prepend(ptr noundef %18, ptr noundef %23)
  store ptr %24, ptr %4, align 8
  br label %25

25:                                               ; preds = %17
  %26 = load ptr, ptr %7, align 8
  %27 = icmp ne ptr %26, null
  br i1 %27, label %28, label %32

28:                                               ; preds = %25
  %29 = load ptr, ptr %7, align 8
  %30 = getelementptr inbounds nuw %struct._GSList, ptr %29, i32 0, i32 1
  %31 = load ptr, ptr %30, align 8
  br label %33

32:                                               ; preds = %25
  br label %33

33:                                               ; preds = %32, %28
  %34 = phi ptr [ %31, %28 ], [ null, %32 ]
  store ptr %34, ptr %7, align 8
  br label %13, !llvm.loop !36

35:                                               ; preds = %16
  %36 = load ptr, ptr %4, align 8
  ret ptr %36
}

; Function Attrs: null_pointer_is_valid sspstrong uwtable
define internal ptr @add_extensions_for_file_extensions_type(i32 noundef %0, ptr noundef %1, ptr noundef %2) #0 {
  %4 = alloca i32, align 4
  %5 = alloca ptr, align 8
  %6 = alloca ptr, align 8
  %7 = alloca ptr, align 8
  %8 = alloca ptr, align 8
  %9 = alloca ptr, align 8
  store i32 %0, ptr %4, align 4
  store ptr %1, ptr %5, align 8
  store ptr %2, ptr %6, align 8
  call void @llvm.lifetime.start.p0(i64 8, ptr %7) #12
  call void @llvm.lifetime.start.p0(i64 8, ptr %8) #12
  call void @llvm.lifetime.start.p0(i64 8, ptr %9) #12
  %10 = load ptr, ptr @file_type_extensions, align 8
  %11 = load i32, ptr %4, align 4
  %12 = sext i32 %11 to i64
  %13 = getelementptr %struct.file_extension_info, ptr %10, i64 %12
  %14 = getelementptr inbounds nuw %struct.file_extension_info, ptr %13, i32 0, i32 2
  %15 = load ptr, ptr %14, align 8
  %16 = call ptr @g_strsplit(ptr noundef %15, ptr noundef @.str, i32 noundef 0)
  store ptr %16, ptr %7, align 8
  %17 = load ptr, ptr %7, align 8
  store ptr %17, ptr %8, align 8
  br label %18

18:                                               ; preds = %29, %3
  %19 = load ptr, ptr %8, align 8
  %20 = load ptr, ptr %19, align 8
  %21 = icmp ne ptr %20, null
  br i1 %21, label %22, label %32

22:                                               ; preds = %18
  %23 = load ptr, ptr %8, align 8
  %24 = load ptr, ptr %23, align 8
  store ptr %24, ptr %9, align 8
  %25 = load ptr, ptr %5, align 8
  %26 = load ptr, ptr %9, align 8
  %27 = load ptr, ptr %6, align 8
  %28 = call ptr @add_extensions(ptr noundef %25, ptr noundef %26, ptr noundef %27)
  store ptr %28, ptr %5, align 8
  br label %29

29:                                               ; preds = %22
  %30 = load ptr, ptr %8, align 8
  %31 = getelementptr ptr, ptr %30, i32 1
  store ptr %31, ptr %8, align 8
  br label %18, !llvm.loop !6

32:                                               ; preds = %18
  %33 = load ptr, ptr %7, align 8
  call void @g_strfreev(ptr noundef %33)
  %34 = load ptr, ptr %5, align 8
  call void @llvm.lifetime.end.p0(i64 8, ptr %9) #12
  call void @llvm.lifetime.end.p0(i64 8, ptr %8) #12
  call void @llvm.lifetime.end.p0(i64 8, ptr %7) #12
  ret ptr %34
}