; Function Attrs: null_pointer_is_valid sspstrong uwtable
define internal fastcc ptr @add_extensions_for_file_extensions_type(i32 noundef %0, ptr noundef %1, ptr noundef readonly captures(address_is_null) %2) unnamed_addr #0 {
  %4 = load ptr, ptr @file_type_extensions, align 8
  %5 = sext i32 %0 to i64
  %6 = getelementptr %struct.file_extension_info, ptr %4, i64 %5, i32 2
  %7 = load ptr, ptr %6, align 8
  %8 = tail call ptr @g_strsplit(ptr noundef %7, ptr noundef nonnull @.str, i32 noundef 0)
  %9 = load ptr, ptr %8, align 8
  %.not11 = icmp eq ptr %9, null
  br i1 %.not11, label %._crit_edge, label %.lr.ph

.lr.ph:                                           ; preds = %3
  %.not11.i = icmp eq ptr %2, null
  br i1 %.not11.i, label %add_extensions.exit.us, label %.lr.ph.i.preheader

add_extensions.exit.us:                           ; preds = %.lr.ph, %add_extensions.exit.us
  %10 = phi ptr [ %14, %add_extensions.exit.us ], [ %9, %.lr.ph ]
  %.013.us = phi ptr [ %12, %add_extensions.exit.us ], [ %1, %.lr.ph ]
  %.0912.us = phi ptr [ %13, %add_extensions.exit.us ], [ %8, %.lr.ph ]
  %11 = tail call noalias ptr @g_strdup(ptr noundef nonnull %10)
  %12 = tail call ptr @g_slist_prepend(ptr noundef %.013.us, ptr noundef %11)
  %13 = getelementptr i8, ptr %.0912.us, i64 8
  %14 = load ptr, ptr %13, align 8
  %.not.us = icmp eq ptr %14, null
  br i1 %.not.us, label %._crit_edge, label %add_extensions.exit.us, !llvm.loop !6

.lr.ph.i.preheader:                               ; preds = %.lr.ph, %add_extensions.exit.loopexit
  %15 = phi ptr [ %24, %add_extensions.exit.loopexit ], [ %9, %.lr.ph ]
  %.013 = phi ptr [ %20, %add_extensions.exit.loopexit ], [ %1, %.lr.ph ]
  %.0912 = phi ptr [ %23, %add_extensions.exit.loopexit ], [ %8, %.lr.ph ]
  %16 = tail call noalias ptr @g_strdup(ptr noundef nonnull %15)
  %17 = tail call ptr @g_slist_prepend(ptr noundef %.013, ptr noundef %16)
  br label %.lr.ph.i

.lr.ph.i:                                         ; preds = %.lr.ph.i.preheader, %.lr.ph.i
  %.013.i = phi ptr [ %22, %.lr.ph.i ], [ %2, %.lr.ph.i.preheader ]
  %.01012.i = phi ptr [ %20, %.lr.ph.i ], [ %17, %.lr.ph.i.preheader ]
  %18 = load ptr, ptr %.013.i, align 8
  %19 = tail call noalias ptr (ptr, ptr, ...) @wmem_strdup_printf(ptr noundef null, ptr noundef nonnull @.str.100, ptr noundef nonnull %15, ptr noundef %18)
  %20 = tail call ptr @g_slist_prepend(ptr noundef %.01012.i, ptr noundef %19)
  %21 = getelementptr inbounds nuw i8, ptr %.013.i, i64 8
  %22 = load ptr, ptr %21, align 8
  %.not.i = icmp eq ptr %22, null
  br i1 %.not.i, label %add_extensions.exit.loopexit, label %.lr.ph.i, !llvm.loop !8

add_extensions.exit.loopexit:                     ; preds = %.lr.ph.i
  %23 = getelementptr i8, ptr %.0912, i64 8
  %24 = load ptr, ptr %23, align 8
  %.not = icmp eq ptr %24, null
  br i1 %.not, label %._crit_edge, label %.lr.ph.i.preheader, !llvm.loop !6

._crit_edge:                                      ; preds = %add_extensions.exit.loopexit, %add_extensions.exit.us, %3
  %.0.lcssa = phi ptr [ %1, %3 ], [ %12, %add_extensions.exit.us ], [ %20, %add_extensions.exit.loopexit ]
  tail call void @g_strfreev(ptr noundef %8)
  ret ptr %.0.lcssa
}